; ModuleID = '19/1103.c'
source_filename = "19/1103.c"
target datalayout = "e-m:e-p270:32:32-p271:32:32-p272:64:64-i64:64-f80:128-n8:16:32:64-S128"
target triple = "x86_64-pc-linux-gnu"

@.str = private unnamed_addr constant [4 x i8] c"%s \00", align 1
@.str.1 = private unnamed_addr constant [3 x i8] c"%s\00", align 1

; Function Attrs: noinline nounwind uwtable
define dso_local i32 @main() #0 {
  %1 = alloca i32, align 4
  %2 = alloca [100 x i8], align 16
  %3 = alloca [100 x i8], align 16
  %4 = alloca [100 x i8], align 16
  %5 = alloca [50 x [100 x i8]], align 16
  %6 = alloca i32, align 4
  %7 = alloca i32, align 4
  %8 = alloca i32, align 4
  %9 = alloca i32, align 4
  %10 = alloca i32, align 4
  store i32 0, i32* %1, align 4
  store i32 0, i32* %7, align 4
  store i32 0, i32* %10, align 4
  %11 = getelementptr inbounds [100 x i8], [100 x i8]* %2, i64 0, i64 0
  %12 = call i32 (i8*, ...) bitcast (i32 (...)* @gets to i32 (i8*, ...)*)(i8* %11)
  %13 = getelementptr inbounds [100 x i8], [100 x i8]* %3, i64 0, i64 0
  %14 = call i32 (i8*, ...) bitcast (i32 (...)* @gets to i32 (i8*, ...)*)(i8* %13)
  %15 = getelementptr inbounds [100 x i8], [100 x i8]* %4, i64 0, i64 0
  %16 = call i32 (i8*, ...) bitcast (i32 (...)* @gets to i32 (i8*, ...)*)(i8* %15)
  %17 = getelementptr inbounds [100 x i8], [100 x i8]* %2, i64 0, i64 0
  %18 = call i64 @strlen(i8* %17) #4
  %19 = trunc i64 %18 to i32
  store i32 %19, i32* %8, align 4
  %20 = getelementptr inbounds [100 x i8], [100 x i8]* %3, i64 0, i64 0
  %21 = call i64 @strlen(i8* %20) #4
  %22 = trunc i64 %21 to i32
  store i32 %22, i32* %9, align 4
  store i32 0, i32* %6, align 4
  br label %23

23:                                               ; preds = %52, %0
  %24 = load i32, i32* %6, align 4
  %25 = load i32, i32* %8, align 4
  %26 = icmp slt i32 %24, %25
  br i1 %26, label %27, label %55

27:                                               ; preds = %23
  %28 = load i32, i32* %6, align 4
  %29 = sext i32 %28 to i64
  %30 = getelementptr inbounds [100 x i8], [100 x i8]* %2, i64 0, i64 %29
  %31 = load i8, i8* %30, align 1
  %32 = sext i8 %31 to i32
  %33 = icmp eq i32 %32, 32
  br i1 %33, label %34, label %51

34:                                               ; preds = %27
  %35 = load i32, i32* %6, align 4
  %36 = sext i32 %35 to i64
  %37 = getelementptr inbounds [100 x i8], [100 x i8]* %2, i64 0, i64 %36
  store i8 0, i8* %37, align 1
  %38 = load i32, i32* %7, align 4
  %39 = sext i32 %38 to i64
  %40 = getelementptr inbounds [50 x [100 x i8]], [50 x [100 x i8]]* %5, i64 0, i64 %39
  %41 = getelementptr inbounds [100 x i8], [100 x i8]* %40, i64 0, i64 0
  %42 = getelementptr inbounds [100 x i8], [100 x i8]* %2, i64 0, i64 0
  %43 = load i32, i32* %10, align 4
  %44 = sext i32 %43 to i64
  %45 = getelementptr inbounds i8, i8* %42, i64 %44
  %46 = call i8* @strcpy(i8* %41, i8* %45) #5
  %47 = load i32, i32* %6, align 4
  %48 = add nsw i32 %47, 1
  store i32 %48, i32* %10, align 4
  %49 = load i32, i32* %7, align 4
  %50 = add nsw i32 %49, 1
  store i32 %50, i32* %7, align 4
  br label %51

51:                                               ; preds = %34, %27
  br label %52

52:                                               ; preds = %51
  %53 = load i32, i32* %6, align 4
  %54 = add nsw i32 %53, 1
  store i32 %54, i32* %6, align 4
  br label %23

55:                                               ; preds = %23
  %56 = load i32, i32* %7, align 4
  %57 = sext i32 %56 to i64
  %58 = getelementptr inbounds [50 x [100 x i8]], [50 x [100 x i8]]* %5, i64 0, i64 %57
  %59 = getelementptr inbounds [100 x i8], [100 x i8]* %58, i64 0, i64 0
  %60 = getelementptr inbounds [100 x i8], [100 x i8]* %2, i64 0, i64 0
  %61 = load i32, i32* %10, align 4
  %62 = sext i32 %61 to i64
  %63 = getelementptr inbounds i8, i8* %60, i64 %62
  %64 = call i8* @strcpy(i8* %59, i8* %63) #5
  store i32 0, i32* %6, align 4
  br label %65

65:                                               ; preds = %86, %55
  %66 = load i32, i32* %6, align 4
  %67 = load i32, i32* %7, align 4
  %68 = add nsw i32 %67, 1
  %69 = icmp slt i32 %66, %68
  br i1 %69, label %70, label %89

70:                                               ; preds = %65
  %71 = load i32, i32* %6, align 4
  %72 = sext i32 %71 to i64
  %73 = getelementptr inbounds [50 x [100 x i8]], [50 x [100 x i8]]* %5, i64 0, i64 %72
  %74 = getelementptr inbounds [100 x i8], [100 x i8]* %73, i64 0, i64 0
  %75 = getelementptr inbounds [100 x i8], [100 x i8]* %3, i64 0, i64 0
  %76 = call i32 @strcmp(i8* %74, i8* %75) #4
  %77 = icmp eq i32 %76, 0
  br i1 %77, label %78, label %85

78:                                               ; preds = %70
  %79 = load i32, i32* %6, align 4
  %80 = sext i32 %79 to i64
  %81 = getelementptr inbounds [50 x [100 x i8]], [50 x [100 x i8]]* %5, i64 0, i64 %80
  %82 = getelementptr inbounds [100 x i8], [100 x i8]* %81, i64 0, i64 0
  %83 = getelementptr inbounds [100 x i8], [100 x i8]* %4, i64 0, i64 0
  %84 = call i8* @strcpy(i8* %82, i8* %83) #5
  br label %85

85:                                               ; preds = %78, %70
  br label %86

86:                                               ; preds = %85
  %87 = load i32, i32* %6, align 4
  %88 = add nsw i32 %87, 1
  store i32 %88, i32* %6, align 4
  br label %65

89:                                               ; preds = %65
  store i32 0, i32* %6, align 4
  br label %90

90:                                               ; preds = %100, %89
  %91 = load i32, i32* %6, align 4
  %92 = load i32, i32* %7, align 4
  %93 = icmp slt i32 %91, %92
  br i1 %93, label %94, label %103

94:                                               ; preds = %90
  %95 = load i32, i32* %6, align 4
  %96 = sext i32 %95 to i64
  %97 = getelementptr inbounds [50 x [100 x i8]], [50 x [100 x i8]]* %5, i64 0, i64 %96
  %98 = getelementptr inbounds [100 x i8], [100 x i8]* %97, i64 0, i64 0
  %99 = call i32 (i8*, ...) @printf(i8* getelementptr inbounds ([4 x i8], [4 x i8]* @.str, i64 0, i64 0), i8* %98)
  br label %100

100:                                              ; preds = %94
  %101 = load i32, i32* %6, align 4
  %102 = add nsw i32 %101, 1
  store i32 %102, i32* %6, align 4
  br label %90

103:                                              ; preds = %90
  %104 = load i32, i32* %7, align 4
  %105 = sext i32 %104 to i64
  %106 = getelementptr inbounds [50 x [100 x i8]], [50 x [100 x i8]]* %5, i64 0, i64 %105
  %107 = getelementptr inbounds [100 x i8], [100 x i8]* %106, i64 0, i64 0
  %108 = call i32 (i8*, ...) @printf(i8* getelementptr inbounds ([3 x i8], [3 x i8]* @.str.1, i64 0, i64 0), i8* %107)
  ret i32 0
}

declare dso_local i32 @gets(...) #1

; Function Attrs: nounwind readonly
declare dso_local i64 @strlen(i8*) #2

; Function Attrs: nounwind
declare dso_local i8* @strcpy(i8*, i8*) #3

; Function Attrs: nounwind readonly
declare dso_local i32 @strcmp(i8*, i8*) #2

declare dso_local i32 @printf(i8*, ...) #1


!llvm.module.flags = !{!0}
!llvm.ident = !{!1}

!0 = !{i32 1, !"wchar_size", i32 4}
!1 = !{!"clang version 10.0.0-4ubuntu1 "}
