; ModuleID = 'source-C-CXX/18/1103.c'
source_filename = "source-C-CXX/18/1103.c"
target datalayout = "e-m:e-p270:32:32-p271:32:32-p272:64:64-i64:64-f80:128-n8:16:32:64-S128"
target triple = "x86_64-pc-linux-gnu"

@.str = private unnamed_addr constant [4 x i8] c"%s \00", align 1
@.str.1 = private unnamed_addr constant [3 x i8] c"%s\00", align 1

; Function Attrs: nounwind sspstrong uwtable
define dso_local i32 @main() local_unnamed_addr #0 {
  %1 = alloca [100 x i8], align 16
  %2 = alloca [100 x i8], align 16
  %3 = alloca [100 x i8], align 16
  %4 = alloca [50 x [100 x i8]], align 16
  %5 = getelementptr inbounds [100 x i8], [100 x i8]* %1, i64 0, i64 0
  call void @llvm.lifetime.start.p0i8(i64 100, i8* nonnull %5) #6
  %6 = getelementptr inbounds [100 x i8], [100 x i8]* %2, i64 0, i64 0
  call void @llvm.lifetime.start.p0i8(i64 100, i8* nonnull %6) #6
  %7 = getelementptr inbounds [100 x i8], [100 x i8]* %3, i64 0, i64 0
  call void @llvm.lifetime.start.p0i8(i64 100, i8* nonnull %7) #6
  %8 = getelementptr inbounds [50 x [100 x i8]], [50 x [100 x i8]]* %4, i64 0, i64 0, i64 0
  call void @llvm.lifetime.start.p0i8(i64 5000, i8* nonnull %8) #6
  %9 = call i32 (i8*, ...) bitcast (i32 (...)* @gets to i32 (i8*, ...)*)(i8* nonnull %5) #6
  %10 = call i32 (i8*, ...) bitcast (i32 (...)* @gets to i32 (i8*, ...)*)(i8* nonnull %6) #6
  %11 = call i32 (i8*, ...) bitcast (i32 (...)* @gets to i32 (i8*, ...)*)(i8* nonnull %7) #6
  %12 = call i64 @strlen(i8* noundef nonnull %5) #7
  %13 = trunc i64 %12 to i32
  %14 = icmp sgt i32 %13, 0
  br i1 %14, label %15, label %40

15:                                               ; preds = %0
  %16 = and i64 %12, 4294967295
  br label %17

17:                                               ; preds = %15, %35
  %18 = phi i64 [ 0, %15 ], [ %36, %35 ]
  %19 = phi i32 [ 0, %15 ], [ %38, %35 ]
  %20 = phi i32 [ 0, %15 ], [ %37, %35 ]
  %21 = getelementptr inbounds [100 x i8], [100 x i8]* %1, i64 0, i64 %18
  %22 = load i8, i8* %21, align 1, !tbaa !5
  %23 = icmp eq i8 %22, 32
  br i1 %23, label %26, label %24

24:                                               ; preds = %17
  %25 = add nuw nsw i64 %18, 1
  br label %35

26:                                               ; preds = %17
  store i8 0, i8* %21, align 1, !tbaa !5
  %27 = sext i32 %20 to i64
  %28 = getelementptr inbounds [50 x [100 x i8]], [50 x [100 x i8]]* %4, i64 0, i64 %27, i64 0
  %29 = sext i32 %19 to i64
  %30 = getelementptr inbounds [100 x i8], [100 x i8]* %1, i64 0, i64 %29
  %31 = call i8* @strcpy(i8* noundef nonnull %28, i8* noundef nonnull %30) #6
  %32 = add nuw nsw i64 %18, 1
  %33 = add nsw i32 %20, 1
  %34 = trunc i64 %32 to i32
  br label %35

35:                                               ; preds = %24, %26
  %36 = phi i64 [ %25, %24 ], [ %32, %26 ]
  %37 = phi i32 [ %20, %24 ], [ %33, %26 ]
  %38 = phi i32 [ %19, %24 ], [ %34, %26 ]
  %39 = icmp eq i64 %36, %16
  br i1 %39, label %40, label %17, !llvm.loop !8

40:                                               ; preds = %35, %0
  %41 = phi i32 [ 0, %0 ], [ %37, %35 ]
  %42 = phi i32 [ 0, %0 ], [ %38, %35 ]
  %43 = sext i32 %41 to i64
  %44 = getelementptr inbounds [50 x [100 x i8]], [50 x [100 x i8]]* %4, i64 0, i64 %43, i64 0
  %45 = sext i32 %42 to i64
  %46 = getelementptr inbounds [100 x i8], [100 x i8]* %1, i64 0, i64 %45
  %47 = call i8* @strcpy(i8* noundef nonnull %44, i8* noundef nonnull %46) #6
  %48 = icmp slt i32 %41, 0
  br i1 %48, label %72, label %49

49:                                               ; preds = %40
  %50 = add nuw i32 %41, 1
  %51 = zext i32 %50 to i64
  br label %56

52:                                               ; preds = %63
  %53 = icmp sgt i32 %41, 0
  br i1 %53, label %54, label %72

54:                                               ; preds = %52
  %55 = zext i32 %41 to i64
  br label %66

56:                                               ; preds = %49, %63
  %57 = phi i64 [ 0, %49 ], [ %64, %63 ]
  %58 = getelementptr inbounds [50 x [100 x i8]], [50 x [100 x i8]]* %4, i64 0, i64 %57, i64 0
  %59 = call i32 @strcmp(i8* noundef nonnull %58, i8* noundef nonnull %6) #7
  %60 = icmp eq i32 %59, 0
  br i1 %60, label %61, label %63

61:                                               ; preds = %56
  %62 = call i8* @strcpy(i8* noundef nonnull %58, i8* noundef nonnull %7) #6
  br label %63

63:                                               ; preds = %56, %61
  %64 = add nuw nsw i64 %57, 1
  %65 = icmp eq i64 %64, %51
  br i1 %65, label %52, label %56, !llvm.loop !10

66:                                               ; preds = %54, %66
  %67 = phi i64 [ 0, %54 ], [ %70, %66 ]
  %68 = getelementptr inbounds [50 x [100 x i8]], [50 x [100 x i8]]* %4, i64 0, i64 %67, i64 0
  %69 = call i32 (i8*, ...) @printf(i8* nonnull dereferenceable(1) getelementptr inbounds ([4 x i8], [4 x i8]* @.str, i64 0, i64 0), i8* nonnull %68)
  %70 = add nuw nsw i64 %67, 1
  %71 = icmp eq i64 %70, %55
  br i1 %71, label %72, label %66, !llvm.loop !11

72:                                               ; preds = %66, %40, %52
  %73 = call i32 (i8*, ...) @printf(i8* nonnull dereferenceable(1) getelementptr inbounds ([3 x i8], [3 x i8]* @.str.1, i64 0, i64 0), i8* nonnull %44)
  call void @llvm.lifetime.end.p0i8(i64 5000, i8* nonnull %8) #6
  call void @llvm.lifetime.end.p0i8(i64 100, i8* nonnull %7) #6
  call void @llvm.lifetime.end.p0i8(i64 100, i8* nonnull %6) #6
  call void @llvm.lifetime.end.p0i8(i64 100, i8* nonnull %5) #6
  ret i32 0
}

; Function Attrs: argmemonly mustprogress nofree nosync nounwind willreturn
declare void @llvm.lifetime.start.p0i8(i64 immarg, i8* nocapture) #1

declare i32 @gets(...) local_unnamed_addr #2

; Function Attrs: argmemonly mustprogress nofree nounwind readonly willreturn
declare i64 @strlen(i8* nocapture) local_unnamed_addr #3

; Function Attrs: argmemonly mustprogress nofree nounwind willreturn
declare i8* @strcpy(i8* noalias returned writeonly, i8* noalias nocapture readonly) local_unnamed_addr #4

; Function Attrs: argmemonly mustprogress nofree nounwind readonly willreturn
declare i32 @strcmp(i8* nocapture, i8* nocapture) local_unnamed_addr #3

; Function Attrs: nofree nounwind
declare noundef i32 @printf(i8* nocapture noundef readonly, ...) local_unnamed_addr #5

; Function Attrs: argmemonly mustprogress nofree nosync nounwind willreturn
declare void @llvm.lifetime.end.p0i8(i64 immarg, i8* nocapture) #1


!llvm.module.flags = !{!0, !1, !2, !3}
!llvm.ident = !{!4}

!0 = !{i32 1, !"wchar_size", i32 4}
!1 = !{i32 7, !"PIC Level", i32 2}
!2 = !{i32 7, !"PIE Level", i32 2}
!3 = !{i32 7, !"uwtable", i32 1}
!4 = !{!"clang version 13.0.0"}
!5 = !{!6, !6, i64 0}
!6 = !{!"omnipotent char", !7, i64 0}
!7 = !{!"Simple C/C++ TBAA"}
!8 = distinct !{!8, !9}
!9 = !{!"llvm.loop.mustprogress"}
!10 = distinct !{!10, !9}
!11 = distinct !{!11, !9}
